; Function Attrs: mustprogress nofree norecurse nosync nounwind willreturn memory(read, inaccessiblemem: none) uwtable
define ptr @lv_display_get_refr_timer(ptr noundef readonly %0) local_unnamed_addr #6 {
  %.not = icmp eq ptr %0, null
  br i1 %.not, label %2, label %.thread

2:                                                ; preds = %1
  %3 = load ptr, ptr getelementptr inbounds nuw (i8, ptr @lv_global, i64 40), align 8, !tbaa !33
  %.not6 = icmp eq ptr %3, null
  br i1 %.not6, label %6, label %.thread

.thread:                                          ; preds = %1, %2
  %.09 = phi ptr [ %3, %2 ], [ %0, %1 ]
  %4 = getelementptr inbounds nuw i8, ptr %.09, i64 904
  %5 = load ptr, ptr %4, align 8, !tbaa !43
  br label %6

6:                                                ; preds = %2, %.thread
  %.04 = phi ptr [ %5, %.thread ], [ null, %2 ]
  ret ptr %.04
}